; Function Attrs: nounwind sspstrong uwtable
define internal i64 @float_arg(i64 noundef %0) #0 {
  %2 = and i64 %0, 3
  %3 = icmp eq i64 %2, 2
  br i1 %3, label %4, label %11

4:                                                ; preds = %1
  %.not.i.i = icmp eq i64 %0, -9223372036854775806
  br i1 %.not.i.i, label %rb_float_value_inline.exit.thread, label %5

5:                                                ; preds = %4
  %.neg.i.i = ashr i64 %0, 63
  %6 = add nsw i64 %.neg.i.i, 2
  %7 = and i64 %0, -4
  %8 = or i64 %6, %7
  %9 = tail call noundef i64 @llvm.fshl.i64(i64 range(i64 1, 0) %8, i64 range(i64 1, 0) %8, i64 61)
  %10 = bitcast i64 %9 to double
  br label %rb_float_value_inline.exit

11:                                               ; preds = %1
  %12 = inttoptr i64 %0 to ptr
  %13 = getelementptr inbounds nuw i8, ptr %12, i64 16
  %14 = load double, ptr %13, align 8, !tbaa !21
  br label %rb_float_value_inline.exit

rb_float_value_inline.exit:                       ; preds = %5, %11
  %.0.i = phi double [ %14, %11 ], [ %10, %5 ]
  %15 = fcmp uno double %.0.i, 0.000000e+00
  br i1 %15, label %21, label %rb_float_value_inline.exit.thread

rb_float_value_inline.exit.thread:                ; preds = %4, %rb_float_value_inline.exit
  %16 = tail call fastcc i32 @f_tpositive_p(i64 noundef %0)
  %.not = icmp eq i32 %16, 0
  br i1 %.not, label %17, label %21

17:                                               ; preds = %rb_float_value_inline.exit.thread
  %18 = load i64, ptr @rb_mMath, align 8, !tbaa !11
  %19 = load i64, ptr @id_PI, align 8, !tbaa !11
  %20 = tail call i64 @rb_const_get(i64 noundef %18, i64 noundef %19) #17
  br label %21

21:                                               ; preds = %rb_float_value_inline.exit.thread, %rb_float_value_inline.exit, %17
  %.0 = phi i64 [ %20, %17 ], [ %0, %rb_float_value_inline.exit ], [ 1, %rb_float_value_inline.exit.thread ]
  ret i64 %.0
}